target datalayout = "e-m:e-p270:32:32-p271:32:32-p272:64:64-i64:64-i128:128-f80:128-n8:16:32:64-S128"
target triple = "x86_64-pc-linux-gnu"

%struct.SDL_AtomicInt = type { i32 }
%struct.SDL_AudioSpec = type { i32, i32, i32 }
%struct.SDL_AudioDevice = type { ptr, ptr, %struct.SDL_AtomicInt, ptr, ptr, ptr, ptr, ptr, ptr, ptr, i32, ptr, %struct.SDL_AudioSpec, i32, ptr, %struct.SDL_AudioSpec, i32, i32, %struct.SDL_AtomicInt, %struct.SDL_AtomicInt, i8, i8, ptr, ptr, ptr, i32, ptr, i8, ptr, ptr }

; Function Attrs: nounwind uwtable
define internal zeroext i1 @ZombieWaitDevice(ptr noundef %0) #0 {
  %2 = alloca ptr, align 8
  %3 = alloca i32, align 4
  store ptr %0, ptr %2, align 8
  %4 = load ptr, ptr %2, align 8
  %5 = getelementptr inbounds nuw %struct.SDL_AudioDevice, ptr %4, i32 0, i32 18
  %6 = call i32 @SDL_GetAtomicInt_REAL(ptr noundef %5)
  %7 = icmp ne i32 %6, 0
  br i1 %7, label %31, label %8

8:                                                ; preds = %1
  call void @llvm.lifetime.start.p0(i64 4, ptr %3) #6
  %9 = load ptr, ptr %2, align 8
  %10 = getelementptr inbounds nuw %struct.SDL_AudioDevice, ptr %9, i32 0, i32 13
  %11 = load i32, ptr %10, align 4
  %12 = load ptr, ptr %2, align 8
  %13 = getelementptr inbounds nuw %struct.SDL_AudioDevice, ptr %12, i32 0, i32 12
  %14 = getelementptr inbounds nuw %struct.SDL_AudioSpec, ptr %13, i32 0, i32 0
  %15 = load i32, ptr %14, align 8
  %16 = and i32 %15, 255
  %17 = udiv i32 %16, 8
  %18 = load ptr, ptr %2, align 8
  %19 = getelementptr inbounds nuw %struct.SDL_AudioDevice, ptr %18, i32 0, i32 12
  %20 = getelementptr inbounds nuw %struct.SDL_AudioSpec, ptr %19, i32 0, i32 1
  %21 = load i32, ptr %20, align 4
  %22 = mul i32 %17, %21
  %23 = udiv i32 %11, %22
  store i32 %23, ptr %3, align 4
  %24 = load i32, ptr %3, align 4
  %25 = mul nsw i32 %24, 1000
  %26 = load ptr, ptr %2, align 8
  %27 = getelementptr inbounds nuw %struct.SDL_AudioDevice, ptr %26, i32 0, i32 12
  %28 = getelementptr inbounds nuw %struct.SDL_AudioSpec, ptr %27, i32 0, i32 2
  %29 = load i32, ptr %28, align 8
  %30 = sdiv i32 %25, %29
  call void @SDL_Delay_REAL(i32 noundef %30)
  call void @llvm.lifetime.end.p0(i64 4, ptr %3) #6
  br label %31

31:                                               ; preds = %8, %1
  ret i1 true
}