; Function Attrs: nounwind uwtable
define internal noundef zeroext i1 @ZombieWaitDevice(ptr noundef %0) #0 {
  %2 = getelementptr inbounds nuw i8, ptr %0, i64 140
  %3 = tail call i32 @SDL_GetAtomicInt_REAL(ptr noundef nonnull %2) #14
  %.not = icmp eq i32 %3, 0
  br i1 %.not, label %4, label %19

4:                                                ; preds = %1
  %5 = getelementptr inbounds nuw i8, ptr %0, i64 108
  %6 = load i32, ptr %5, align 4
  %7 = getelementptr inbounds nuw i8, ptr %0, i64 96
  %8 = load i32, ptr %7, align 8
  %9 = lshr i32 %8, 3
  %10 = and i32 %9, 31
  %11 = getelementptr inbounds nuw i8, ptr %0, i64 100
  %12 = load i32, ptr %11, align 4
  %13 = mul i32 %10, %12
  %14 = udiv i32 %6, %13
  %15 = mul nsw i32 %14, 1000
  %16 = getelementptr inbounds nuw i8, ptr %0, i64 104
  %17 = load i32, ptr %16, align 8
  %18 = sdiv i32 %15, %17
  tail call void @SDL_Delay_REAL(i32 noundef %18) #14
  br label %19

19:                                               ; preds = %4, %1
  ret i1 true
}